#include <math.h>
#include <stdio.h>
#include <stdlib.h>
#include <string.h>

int main(int argc, char* argv[])
{
	int k,n;
	int i,j;
	double sum,a,s,S;
	double sz[100];
	double* p=sz;
	scanf("%d",&k);
	for(i=0;i<k;i++){
		sum=0;
		s=0;
		scanf("%d",&n);
		for(j=0;j<n;j++){
			scanf("%lf",p+j);
			sum=sum+*(p+j);
		}
		a=sum/n;
		for(j=0;j<n;j++){
			s=s+(*(p+j)-a)*(*(p+j)-a);
		}
		S=sqrt(s/n);
		printf("%.5lf\n",S);
	}
	return 0;
}
